target datalayout = "e-m:e-p270:32:32-p271:32:32-p272:64:64-i64:64-i128:128-f80:128-n8:16:32:64-S128"
target triple = "x86_64-pc-linux-gnu"

%struct.RBasic = type { i64, i64 }
%struct.dig_method = type { i64, i32 }

@__const.rb_obj_dig.hash = private unnamed_addr constant { i64, i32, [4 x i8] } { i64 4, i32 0, [4 x i8] zeroinitializer }, align 8
@__const.rb_obj_dig.ary = private unnamed_addr constant { i64, i32, [4 x i8] } { i64 4, i32 0, [4 x i8] zeroinitializer }, align 8
@__const.rb_obj_dig.strt = private unnamed_addr constant { i64, i32, [4 x i8] } { i64 4, i32 0, [4 x i8] zeroinitializer }, align 8
@id_dig = internal global i64 0, align 8

; Function Attrs: inlinehint nounwind sspstrong willreturn memory(read) uwtable
define internal i64 @RBASIC_CLASS(i64 noundef %0) #7 {
  %2 = alloca i64, align 8
  store i64 %0, ptr %2, align 8, !tbaa !11
  %3 = load i64, ptr %2, align 8, !tbaa !11
  %4 = inttoptr i64 %3 to ptr
  %5 = getelementptr inbounds nuw %struct.RBasic, ptr %4, i32 0, i32 1
  %6 = load i64, ptr %5, align 8, !tbaa !111
  ret i64 %6
}

; Function Attrs: inlinehint nounwind sspstrong willreturn memory(none) uwtable
define internal zeroext i1 @RB_IMMEDIATE_P(i64 noundef %0) #1 {
  %2 = alloca i64, align 8
  store i64 %0, ptr %2, align 8, !tbaa !11
  %3 = load i64, ptr %2, align 8, !tbaa !11
  %4 = and i64 %3, 7
  %5 = icmp ne i64 %4, 0
  ret i1 %5
}

; Function Attrs: nounwind sspstrong uwtable
define internal i32 @dig_basic_p(i64 noundef %0, ptr noundef %1) #0 {
  %3 = alloca i64, align 8
  %4 = alloca ptr, align 8
  %5 = alloca i64, align 8
  store i64 %0, ptr %3, align 8, !tbaa !11
  store ptr %1, ptr %4, align 8, !tbaa !98
  call void @llvm.lifetime.start.p0(i64 8, ptr %5) #28
  %6 = load i64, ptr %3, align 8, !tbaa !11
  %7 = call i64 @RBASIC_CLASS(i64 noundef %6) #29
  store i64 %7, ptr %5, align 8, !tbaa !11
  %8 = load i64, ptr %5, align 8, !tbaa !11
  %9 = load ptr, ptr %4, align 8, !tbaa !98
  %10 = getelementptr inbounds nuw %struct.dig_method, ptr %9, i32 0, i32 0
  %11 = load i64, ptr %10, align 8, !tbaa !100
  %12 = icmp ne i64 %8, %11
  br i1 %12, label %13, label %22

13:                                               ; preds = %2
  %14 = load i64, ptr %5, align 8, !tbaa !11
  %15 = load ptr, ptr %4, align 8, !tbaa !98
  %16 = getelementptr inbounds nuw %struct.dig_method, ptr %15, i32 0, i32 0
  store i64 %14, ptr %16, align 8, !tbaa !100
  %17 = load i64, ptr %5, align 8, !tbaa !11
  %18 = load i64, ptr @id_dig, align 8, !tbaa !11
  %19 = call i32 @rb_method_basic_definition_p(i64 noundef %17, i64 noundef %18)
  %20 = load ptr, ptr %4, align 8, !tbaa !98
  %21 = getelementptr inbounds nuw %struct.dig_method, ptr %20, i32 0, i32 1
  store i32 %19, ptr %21, align 8, !tbaa !102
  br label %22

22:                                               ; preds = %13, %2
  %23 = load ptr, ptr %4, align 8, !tbaa !98
  %24 = getelementptr inbounds nuw %struct.dig_method, ptr %23, i32 0, i32 1
  %25 = load i32, ptr %24, align 8, !tbaa !102
  call void @llvm.lifetime.end.p0(i64 8, ptr %5) #28
  ret i32 %25
}

; Function Attrs: inlinehint nounwind sspstrong willreturn memory(read) uwtable
define internal i32 @RB_BUILTIN_TYPE(i64 noundef %0) #7 {
  %2 = alloca i64, align 8
  %3 = alloca i64, align 8
  store i64 %0, ptr %2, align 8, !tbaa !11
  call void @llvm.lifetime.start.p0(i64 8, ptr %3) #28
  %4 = load i64, ptr %2, align 8, !tbaa !11
  %5 = inttoptr i64 %4 to ptr
  %6 = getelementptr inbounds nuw %struct.RBasic, ptr %5, i32 0, i32 0
  %7 = load i64, ptr %6, align 8, !tbaa !28
  %8 = and i64 %7, 31
  store i64 %8, ptr %3, align 8, !tbaa !11
  %9 = load i64, ptr %3, align 8, !tbaa !11
  %10 = trunc i64 %9 to i32
  call void @llvm.lifetime.end.p0(i64 8, ptr %3) #28
  ret i32 %10
}

; Function Attrs: inlinehint nounwind sspstrong willreturn memory(none) uwtable
define internal zeroext i1 @RB_SPECIAL_CONST_P(i64 noundef %0) #1 {
  %2 = alloca i64, align 8
  store i64 %0, ptr %2, align 8, !tbaa !11
  %3 = load i64, ptr %2, align 8, !tbaa !11
  %4 = icmp eq i64 %3, 0
  br i1 %4, label %8, label %5

5:                                                ; preds = %1
  %6 = load i64, ptr %2, align 8, !tbaa !11
  %7 = call zeroext i1 @RB_IMMEDIATE_P(i64 noundef %6) #27
  br label %8

8:                                                ; preds = %5, %1
  %9 = phi i1 [ true, %1 ], [ %7, %5 ]
  ret i1 %9
}

; Function Attrs: inlinehint nounwind sspstrong willreturn memory(none) uwtable
define internal zeroext i1 @RB_NIL_P(i64 noundef %0) #1 {
  %2 = alloca i64, align 8
  store i64 %0, ptr %2, align 8, !tbaa !11
  %3 = load i64, ptr %2, align 8, !tbaa !11
  %4 = icmp eq i64 %3, 4
  ret i1 %4
}

; Function Attrs: nounwind sspstrong uwtable
define hidden i64 @rb_obj_dig(i32 noundef %0, ptr noundef %1, i64 noundef %2, i64 noundef %3) #0 {
  %5 = alloca i64, align 8
  %6 = alloca i32, align 4
  %7 = alloca ptr, align 8
  %8 = alloca i64, align 8
  %9 = alloca i64, align 8
  %10 = alloca %struct.dig_method, align 8
  %11 = alloca %struct.dig_method, align 8
  %12 = alloca %struct.dig_method, align 8
  %13 = alloca i32, align 4
  store i32 %0, ptr %6, align 4, !tbaa !7
  store ptr %1, ptr %7, align 8, !tbaa !36
  store i64 %2, ptr %8, align 8, !tbaa !11
  store i64 %3, ptr %9, align 8, !tbaa !11
  call void @llvm.lifetime.start.p0(i64 16, ptr %10) #28
  call void @llvm.memcpy.p0.p0.i64(ptr align 8 %10, ptr align 8 @__const.rb_obj_dig.hash, i64 16, i1 false)
  call void @llvm.lifetime.start.p0(i64 16, ptr %11) #28
  call void @llvm.memcpy.p0.p0.i64(ptr align 8 %11, ptr align 8 @__const.rb_obj_dig.ary, i64 16, i1 false)
  call void @llvm.lifetime.start.p0(i64 16, ptr %12) #28
  call void @llvm.memcpy.p0.p0.i64(ptr align 8 %12, ptr align 8 @__const.rb_obj_dig.strt, i64 16, i1 false)
  br label %14

14:                                               ; preds = %67, %4
  %15 = load i32, ptr %6, align 4, !tbaa !7
  %16 = icmp sgt i32 %15, 0
  br i1 %16, label %17, label %72

17:                                               ; preds = %14
  %18 = load i64, ptr %8, align 8, !tbaa !11
  %19 = call zeroext i1 @RB_NIL_P(i64 noundef %18) #27
  br i1 %19, label %20, label %22

20:                                               ; preds = %17
  %21 = load i64, ptr %9, align 8, !tbaa !11
  store i64 %21, ptr %5, align 8
  store i32 1, ptr %13, align 4
  br label %74

22:                                               ; preds = %17
  %23 = load i64, ptr %8, align 8, !tbaa !11
  %24 = call zeroext i1 @RB_SPECIAL_CONST_P(i64 noundef %23) #27
  br i1 %24, label %60, label %25

25:                                               ; preds = %22
  %26 = load i64, ptr %8, align 8, !tbaa !11
  %27 = call i32 @RB_BUILTIN_TYPE(i64 noundef %26) #29
  switch i32 %27, label %58 [
    i32 8, label %28
    i32 7, label %38
    i32 9, label %48
  ]

28:                                               ; preds = %25
  %29 = load i64, ptr %8, align 8, !tbaa !11
  %30 = call i32 @dig_basic_p(i64 noundef %29, ptr noundef %10)
  %31 = icmp ne i32 %30, 0
  br i1 %31, label %32, label %37

32:                                               ; preds = %28
  %33 = load i64, ptr %8, align 8, !tbaa !11
  %34 = load ptr, ptr %7, align 8, !tbaa !36
  %35 = load i64, ptr %34, align 8, !tbaa !11
  %36 = call i64 @rb_hash_aref(i64 noundef %33, i64 noundef %35)
  store i64 %36, ptr %8, align 8, !tbaa !11
  br label %67

37:                                               ; preds = %28
  br label %59

38:                                               ; preds = %25
  %39 = load i64, ptr %8, align 8, !tbaa !11
  %40 = call i32 @dig_basic_p(i64 noundef %39, ptr noundef %11)
  %41 = icmp ne i32 %40, 0
  br i1 %41, label %42, label %47

42:                                               ; preds = %38
  %43 = load i64, ptr %8, align 8, !tbaa !11
  %44 = load ptr, ptr %7, align 8, !tbaa !36
  %45 = load i64, ptr %44, align 8, !tbaa !11
  %46 = call i64 @rb_ary_at(i64 noundef %43, i64 noundef %45)
  store i64 %46, ptr %8, align 8, !tbaa !11
  br label %67

47:                                               ; preds = %38
  br label %59

48:                                               ; preds = %25
  %49 = load i64, ptr %8, align 8, !tbaa !11
  %50 = call i32 @dig_basic_p(i64 noundef %49, ptr noundef %12)
  %51 = icmp ne i32 %50, 0
  br i1 %51, label %52, label %57

52:                                               ; preds = %48
  %53 = load i64, ptr %8, align 8, !tbaa !11
  %54 = load ptr, ptr %7, align 8, !tbaa !36
  %55 = load i64, ptr %54, align 8, !tbaa !11
  %56 = call i64 @rb_struct_lookup(i64 noundef %53, i64 noundef %55)
  store i64 %56, ptr %8, align 8, !tbaa !11
  br label %67

57:                                               ; preds = %48
  br label %59

58:                                               ; preds = %25
  br label %59

59:                                               ; preds = %58, %57, %47, %37
  br label %60

60:                                               ; preds = %59, %22
  %61 = load i64, ptr %8, align 8, !tbaa !11
  %62 = load i64, ptr @id_dig, align 8, !tbaa !11
  %63 = load i32, ptr %6, align 4, !tbaa !7
  %64 = load ptr, ptr %7, align 8, !tbaa !36
  %65 = load i64, ptr %8, align 8, !tbaa !11
  %66 = call i64 @rb_check_funcall_with_hook_kw(i64 noundef %61, i64 noundef %62, i32 noundef %63, ptr noundef %64, ptr noundef @no_dig_method, i64 noundef %65, i32 noundef 0)
  store i64 %66, ptr %5, align 8
  store i32 1, ptr %13, align 4
  br label %74

67:                                               ; preds = %52, %42, %32
  %68 = load ptr, ptr %7, align 8, !tbaa !36
  %69 = getelementptr i64, ptr %68, i32 1
  store ptr %69, ptr %7, align 8, !tbaa !36
  %70 = load i32, ptr %6, align 4, !tbaa !7
  %71 = add i32 %70, -1
  store i32 %71, ptr %6, align 4, !tbaa !7
  br label %14, !llvm.loop !97

72:                                               ; preds = %14
  %73 = load i64, ptr %8, align 8, !tbaa !11
  store i64 %73, ptr %5, align 8
  store i32 1, ptr %13, align 4
  br label %74

74:                                               ; preds = %72, %60, %20
  call void @llvm.lifetime.end.p0(i64 16, ptr %12) #28
  call void @llvm.lifetime.end.p0(i64 16, ptr %11) #28
  call void @llvm.lifetime.end.p0(i64 16, ptr %10) #28
  %75 = load i64, ptr %5, align 8
  ret i64 %75
}