; Function Attrs: nounwind sspstrong uwtable
define hidden i64 @rb_obj_dig(i32 noundef %0, ptr noundef %1, i64 noundef %2, i64 noundef %3) local_unnamed_addr #2 {
  %5 = icmp sgt i32 %0, 0
  br i1 %5, label %.lr.ph, label %.loopexit

.lr.ph:                                           ; preds = %4, %47
  %.02153 = phi i64 [ %.1, %47 ], [ %2, %4 ]
  %.02252 = phi ptr [ %48, %47 ], [ %1, %4 ]
  %.02351 = phi i32 [ %49, %47 ], [ %0, %4 ]
  %.sroa.0.050 = phi i64 [ %.sroa.0.1, %47 ], [ 4, %4 ]
  %.sroa.5.049 = phi i32 [ %.sroa.5.1, %47 ], [ 0, %4 ]
  %.sroa.540.048 = phi i32 [ %.sroa.540.1, %47 ], [ 0, %4 ]
  %.sroa.036.047 = phi i64 [ %.sroa.036.1, %47 ], [ 4, %4 ]
  %.sroa.537.046 = phi i32 [ %.sroa.537.1, %47 ], [ 0, %4 ]
  %.sroa.039.045 = phi i64 [ %.sroa.039.1, %47 ], [ 4, %4 ]
  %6 = icmp eq i64 %.02153, 4
  br i1 %6, label %.loopexit, label %7

7:                                                ; preds = %.lr.ph
  %8 = icmp eq i64 %.02153, 0
  %9 = and i64 %.02153, 7
  %10 = icmp ne i64 %9, 0
  %11 = or i1 %8, %10
  br i1 %11, label %44, label %12

12:                                               ; preds = %7
  %13 = inttoptr i64 %.02153 to ptr
  %14 = load i64, ptr %13, align 8, !tbaa !24
  %15 = trunc i64 %14 to i32
  %16 = and i32 %15, 31
  switch i32 %16, label %44 [
    i32 8, label %17
    i32 7, label %26
    i32 9, label %35
  ]

17:                                               ; preds = %12
  %18 = getelementptr inbounds nuw i8, ptr %13, i64 8
  %19 = load i64, ptr %18, align 8, !tbaa !95
  %.not.i = icmp eq i64 %19, %.sroa.039.045
  br i1 %.not.i, label %dig_basic_p.exit, label %20

20:                                               ; preds = %17
  %21 = load i64, ptr @id_dig, align 8, !tbaa !7
  %22 = tail call i32 @rb_method_basic_definition_p(i64 noundef %19, i64 noundef %21) #23
  br label %dig_basic_p.exit

dig_basic_p.exit:                                 ; preds = %17, %20
  %.sroa.039.2 = phi i64 [ %19, %20 ], [ %.sroa.039.045, %17 ]
  %.sroa.540.2 = phi i32 [ %22, %20 ], [ %.sroa.540.048, %17 ]
  %.not25 = icmp eq i32 %.sroa.540.2, 0
  br i1 %.not25, label %44, label %23

23:                                               ; preds = %dig_basic_p.exit
  %24 = load i64, ptr %.02252, align 8, !tbaa !7
  %25 = tail call i64 @rb_hash_aref(i64 noundef %.02153, i64 noundef %24) #23
  br label %47

26:                                               ; preds = %12
  %27 = getelementptr inbounds nuw i8, ptr %13, i64 8
  %28 = load i64, ptr %27, align 8, !tbaa !95
  %.not.i26 = icmp eq i64 %28, %.sroa.036.047
  br i1 %.not.i26, label %dig_basic_p.exit30, label %29

29:                                               ; preds = %26
  %30 = load i64, ptr @id_dig, align 8, !tbaa !7
  %31 = tail call i32 @rb_method_basic_definition_p(i64 noundef %28, i64 noundef %30) #23
  br label %dig_basic_p.exit30

dig_basic_p.exit30:                               ; preds = %26, %29
  %.sroa.537.2 = phi i32 [ %31, %29 ], [ %.sroa.537.046, %26 ]
  %.sroa.036.2 = phi i64 [ %28, %29 ], [ %.sroa.036.047, %26 ]
  %.not24 = icmp eq i32 %.sroa.537.2, 0
  br i1 %.not24, label %44, label %32

32:                                               ; preds = %dig_basic_p.exit30
  %33 = load i64, ptr %.02252, align 8, !tbaa !7
  %34 = tail call i64 @rb_ary_at(i64 noundef %.02153, i64 noundef %33) #23
  br label %47

35:                                               ; preds = %12
  %36 = getelementptr inbounds nuw i8, ptr %13, i64 8
  %37 = load i64, ptr %36, align 8, !tbaa !95
  %.not.i31 = icmp eq i64 %37, %.sroa.0.050
  br i1 %.not.i31, label %dig_basic_p.exit35, label %38

38:                                               ; preds = %35
  %39 = load i64, ptr @id_dig, align 8, !tbaa !7
  %40 = tail call i32 @rb_method_basic_definition_p(i64 noundef %37, i64 noundef %39) #23
  br label %dig_basic_p.exit35

dig_basic_p.exit35:                               ; preds = %35, %38
  %.sroa.5.2 = phi i32 [ %40, %38 ], [ %.sroa.5.049, %35 ]
  %.sroa.0.2 = phi i64 [ %37, %38 ], [ %.sroa.0.050, %35 ]
  %.not = icmp eq i32 %.sroa.5.2, 0
  br i1 %.not, label %44, label %41

41:                                               ; preds = %dig_basic_p.exit35
  %42 = load i64, ptr %.02252, align 8, !tbaa !7
  %43 = tail call i64 @rb_struct_lookup(i64 noundef %.02153, i64 noundef %42) #23
  br label %47

44:                                               ; preds = %dig_basic_p.exit, %dig_basic_p.exit30, %dig_basic_p.exit35, %12, %7
  %45 = load i64, ptr @id_dig, align 8, !tbaa !7
  %46 = tail call i64 @rb_check_funcall_with_hook_kw(i64 noundef %.02153, i64 noundef %45, i32 noundef %.02351, ptr noundef %.02252, ptr noundef nonnull @no_dig_method, i64 noundef %.02153, i32 noundef 0) #23
  br label %.loopexit

47:                                               ; preds = %41, %32, %23
  %.sroa.039.1 = phi i64 [ %.sroa.039.045, %41 ], [ %.sroa.039.045, %32 ], [ %.sroa.039.2, %23 ]
  %.sroa.537.1 = phi i32 [ %.sroa.537.046, %41 ], [ %.sroa.537.2, %32 ], [ %.sroa.537.046, %23 ]
  %.sroa.036.1 = phi i64 [ %.sroa.036.047, %41 ], [ %.sroa.036.2, %32 ], [ %.sroa.036.047, %23 ]
  %.sroa.540.1 = phi i32 [ %.sroa.540.048, %41 ], [ %.sroa.540.048, %32 ], [ %.sroa.540.2, %23 ]
  %.sroa.5.1 = phi i32 [ %.sroa.5.2, %41 ], [ %.sroa.5.049, %32 ], [ %.sroa.5.049, %23 ]
  %.sroa.0.1 = phi i64 [ %.sroa.0.2, %41 ], [ %.sroa.0.050, %32 ], [ %.sroa.0.050, %23 ]
  %.1 = phi i64 [ %43, %41 ], [ %34, %32 ], [ %25, %23 ]
  %48 = getelementptr i8, ptr %.02252, i64 8
  %49 = add nsw i32 %.02351, -1
  %50 = icmp sgt i32 %.02351, 1
  br i1 %50, label %.lr.ph, label %.loopexit, !llvm.loop !96

.loopexit:                                        ; preds = %.lr.ph, %47, %4, %44
  %.0 = phi i64 [ %46, %44 ], [ %2, %4 ], [ %3, %.lr.ph ], [ %.1, %47 ]
  ret i64 %.0
}